; Function Attrs: mustprogress nounwind willreturn uwtable
define void @Abc_FrameClearVerifStatus(ptr noundef captures(none) initializes((400, 408)) %0) local_unnamed_addr #3 {
  %2 = getelementptr inbounds nuw i8, ptr %0, i64 404
  store i32 -1, ptr %2, align 4, !tbaa !39
  %3 = getelementptr inbounds nuw i8, ptr %0, i64 400
  store i32 -1, ptr %3, align 8, !tbaa !40
  %4 = getelementptr inbounds nuw i8, ptr %0, i64 352
  %5 = load ptr, ptr %4, align 8, !tbaa !41
  %.not = icmp eq ptr %5, null
  br i1 %.not, label %7, label %6

6:                                                ; preds = %1
  tail call void @free(ptr noundef nonnull %5) #20
  store ptr null, ptr %4, align 8, !tbaa !41
  br label %7

7:                                                ; preds = %1, %6
  ret void
}